target datalayout = "e-m:e-p270:32:32-p271:32:32-p272:64:64-i64:64-i128:128-f80:128-n8:16:32:64-S128"
target triple = "x86_64-pc-linux-gnu"

%struct.H5B2_t = type { ptr, ptr }
%struct.H5B2_hdr_t = type { %struct.H5C_cache_entry_t, %struct.H5B2_node_ptr_t, i8, i8, i32, i32, i16, i8, ptr, i64, i64, i64, i64, i8, i8, i8, ptr, ptr, ptr, ptr, ptr, ptr, ptr, i8, ptr, ptr, i64, ptr, ptr }
%struct.H5C_cache_entry_t = type { ptr, i64, i64, ptr, i8, ptr, i8, i8, i8, i8, i32, i8, i8, i8, i8, i8, i32, ptr, i32, i32, i32, i32, i32, i8, i8, ptr, ptr, ptr, ptr, ptr, ptr, i8, i32, i8, i64, ptr, i64, i64, i32, i8, i32, i32, i8, ptr, ptr, ptr }
%struct.H5B2_node_ptr_t = type { i64, i16, i64 }

@H5B2_init_g = external global i8, align 1
@H5_libterm_g = external global i8, align 1

; Function Attrs: nounwind uwtable
define i32 @H5B2__get_root_addr_test(ptr noundef %0, ptr noundef %1) #0 {
  %3 = alloca ptr, align 8
  %4 = alloca ptr, align 8
  store ptr %0, ptr %3, align 8, !tbaa !42
  store ptr %1, ptr %4, align 8, !tbaa !44
  %5 = load i8, ptr @H5B2_init_g, align 1, !tbaa !9, !range !11, !noundef !12
  %6 = trunc i8 %5 to i1
  br i1 %6, label %11, label %7

7:                                                ; preds = %2
  %8 = load i8, ptr @H5_libterm_g, align 1, !tbaa !9, !range !11, !noundef !12
  %9 = trunc i8 %8 to i1
  %10 = xor i1 %9, true
  br label %11

11:                                               ; preds = %7, %2
  %12 = phi i1 [ true, %2 ], [ %10, %7 ]
  %13 = xor i1 %12, true
  %14 = xor i1 %13, true
  %15 = zext i1 %14 to i32
  %16 = sext i32 %15 to i64
  %17 = call i64 @llvm.expect.i64(i64 %16, i64 1)
  %18 = icmp ne i64 %17, 0
  br i1 %18, label %19, label %27

19:                                               ; preds = %11
  %20 = load ptr, ptr %3, align 8, !tbaa !42
  %21 = getelementptr inbounds nuw %struct.H5B2_t, ptr %20, i32 0, i32 0
  %22 = load ptr, ptr %21, align 8, !tbaa !46
  %23 = getelementptr inbounds nuw %struct.H5B2_hdr_t, ptr %22, i32 0, i32 1
  %24 = getelementptr inbounds nuw %struct.H5B2_node_ptr_t, ptr %23, i32 0, i32 0
  %25 = load i64, ptr %24, align 8, !tbaa !49
  %26 = load ptr, ptr %4, align 8, !tbaa !44
  store i64 %25, ptr %26, align 8, !tbaa !15
  br label %27

27:                                               ; preds = %19, %11
  ret i32 0
}